target datalayout = "e-m:e-p270:32:32-p271:32:32-p272:64:64-i64:64-i128:128-f80:128-n8:16:32:64-S128"
target triple = "x86_64-pc-linux-gnu"

%struct.Int_Man_t_ = type { ptr, [16 x i32], i32, i32, i32, i32, i32, i32, i32, i32, ptr, ptr, ptr, ptr, ptr, i32, ptr, ptr, i32, i32, i32, ptr, ptr, ptr, i32, i32, i64, i64, i64 }
%struct.Sto_Man_t_ = type { i32, i32, i32, i32, ptr, ptr, ptr, i32, i32, ptr }
%struct.Sto_Cls_t_ = type { ptr, ptr, ptr, i32, i32, [0 x i32] }

@.str.17 = private unnamed_addr constant [28 x i8] c"Found root level conflict!\0A\00", align 1

; Function Attrs: inlinehint nounwind uwtable
define internal i32 @lit_var(i32 noundef %0) #4 {
  %2 = alloca i32, align 4
  store i32 %0, ptr %2, align 4, !tbaa !20
  %3 = load i32, ptr %2, align 4, !tbaa !20
  %4 = ashr i32 %3, 1
  ret i32 %4
}

; Function Attrs: inlinehint nounwind uwtable
define internal i32 @lit_neg(i32 noundef %0) #4 {
  %2 = alloca i32, align 4
  store i32 %0, ptr %2, align 4, !tbaa !20
  %3 = load i32, ptr %2, align 4, !tbaa !20
  %4 = xor i32 %3, 1
  ret i32 %4
}

; Function Attrs: inlinehint nounwind uwtable
define internal i32 @Int_ManEnqueue(ptr noundef %0, i32 noundef %1, ptr noundef %2) #4 {
  %4 = alloca i32, align 4
  %5 = alloca ptr, align 8
  %6 = alloca i32, align 4
  %7 = alloca ptr, align 8
  %8 = alloca i32, align 4
  %9 = alloca i32, align 4
  store ptr %0, ptr %5, align 8, !tbaa !3
  store i32 %1, ptr %6, align 4, !tbaa !20
  store ptr %2, ptr %7, align 8, !tbaa !26
  call void @llvm.lifetime.start.p0(i64 4, ptr %8) #9
  %10 = load i32, ptr %6, align 4, !tbaa !20
  %11 = call i32 @lit_var(i32 noundef %10)
  store i32 %11, ptr %8, align 4, !tbaa !20
  %12 = load ptr, ptr %5, align 8, !tbaa !3
  %13 = getelementptr inbounds nuw %struct.Int_Man_t_, ptr %12, i32 0, i32 11
  %14 = load ptr, ptr %13, align 8, !tbaa !41
  %15 = load i32, ptr %8, align 4, !tbaa !20
  %16 = sext i32 %15 to i64
  %17 = getelementptr inbounds i32, ptr %14, i64 %16
  %18 = load i32, ptr %17, align 4, !tbaa !20
  %19 = icmp ne i32 %18, -1
  br i1 %19, label %20, label %31

20:                                               ; preds = %3
  %21 = load ptr, ptr %5, align 8, !tbaa !3
  %22 = getelementptr inbounds nuw %struct.Int_Man_t_, ptr %21, i32 0, i32 11
  %23 = load ptr, ptr %22, align 8, !tbaa !41
  %24 = load i32, ptr %8, align 4, !tbaa !20
  %25 = sext i32 %24 to i64
  %26 = getelementptr inbounds i32, ptr %23, i64 %25
  %27 = load i32, ptr %26, align 4, !tbaa !20
  %28 = load i32, ptr %6, align 4, !tbaa !20
  %29 = icmp eq i32 %27, %28
  %30 = zext i1 %29 to i32
  store i32 %30, ptr %4, align 4
  store i32 1, ptr %9, align 4
  br label %56

31:                                               ; preds = %3
  %32 = load i32, ptr %6, align 4, !tbaa !20
  %33 = load ptr, ptr %5, align 8, !tbaa !3
  %34 = getelementptr inbounds nuw %struct.Int_Man_t_, ptr %33, i32 0, i32 11
  %35 = load ptr, ptr %34, align 8, !tbaa !41
  %36 = load i32, ptr %8, align 4, !tbaa !20
  %37 = sext i32 %36 to i64
  %38 = getelementptr inbounds i32, ptr %35, i64 %37
  store i32 %32, ptr %38, align 4, !tbaa !20
  %39 = load ptr, ptr %7, align 8, !tbaa !26
  %40 = load ptr, ptr %5, align 8, !tbaa !3
  %41 = getelementptr inbounds nuw %struct.Int_Man_t_, ptr %40, i32 0, i32 13
  %42 = load ptr, ptr %41, align 8, !tbaa !43
  %43 = load i32, ptr %8, align 4, !tbaa !20
  %44 = sext i32 %43 to i64
  %45 = getelementptr inbounds ptr, ptr %42, i64 %44
  store ptr %39, ptr %45, align 8, !tbaa !26
  %46 = load i32, ptr %6, align 4, !tbaa !20
  %47 = load ptr, ptr %5, align 8, !tbaa !3
  %48 = getelementptr inbounds nuw %struct.Int_Man_t_, ptr %47, i32 0, i32 10
  %49 = load ptr, ptr %48, align 8, !tbaa !40
  %50 = load ptr, ptr %5, align 8, !tbaa !3
  %51 = getelementptr inbounds nuw %struct.Int_Man_t_, ptr %50, i32 0, i32 9
  %52 = load i32, ptr %51, align 4, !tbaa !61
  %53 = add nsw i32 %52, 1
  store i32 %53, ptr %51, align 4, !tbaa !61
  %54 = sext i32 %52 to i64
  %55 = getelementptr inbounds i32, ptr %49, i64 %54
  store i32 %46, ptr %55, align 4, !tbaa !20
  store i32 1, ptr %4, align 4
  store i32 1, ptr %9, align 4
  br label %56

56:                                               ; preds = %31, %20
  call void @llvm.lifetime.end.p0(i64 4, ptr %8) #9
  %57 = load i32, ptr %4, align 4
  ret i32 %57
}

; Function Attrs: inlinehint nounwind uwtable
define internal void @Int_ManWatchClause(ptr noundef %0, ptr noundef %1, i32 noundef %2) #4 {
  %4 = alloca ptr, align 8
  %5 = alloca ptr, align 8
  %6 = alloca i32, align 4
  store ptr %0, ptr %4, align 8, !tbaa !3
  store ptr %1, ptr %5, align 8, !tbaa !26
  store i32 %2, ptr %6, align 4, !tbaa !20
  %7 = load ptr, ptr %5, align 8, !tbaa !26
  %8 = getelementptr inbounds nuw %struct.Sto_Cls_t_, ptr %7, i32 0, i32 5
  %9 = getelementptr inbounds [0 x i32], ptr %8, i64 0, i64 0
  %10 = load i32, ptr %9, align 8, !tbaa !20
  %11 = load i32, ptr %6, align 4, !tbaa !20
  %12 = icmp eq i32 %10, %11
  br i1 %12, label %13, label %24

13:                                               ; preds = %3
  %14 = load ptr, ptr %4, align 8, !tbaa !3
  %15 = getelementptr inbounds nuw %struct.Int_Man_t_, ptr %14, i32 0, i32 14
  %16 = load ptr, ptr %15, align 8, !tbaa !44
  %17 = load i32, ptr %6, align 4, !tbaa !20
  %18 = call i32 @lit_neg(i32 noundef %17)
  %19 = sext i32 %18 to i64
  %20 = getelementptr inbounds ptr, ptr %16, i64 %19
  %21 = load ptr, ptr %20, align 8, !tbaa !26
  %22 = load ptr, ptr %5, align 8, !tbaa !26
  %23 = getelementptr inbounds nuw %struct.Sto_Cls_t_, ptr %22, i32 0, i32 1
  store ptr %21, ptr %23, align 8, !tbaa !65
  br label %35

24:                                               ; preds = %3
  %25 = load ptr, ptr %4, align 8, !tbaa !3
  %26 = getelementptr inbounds nuw %struct.Int_Man_t_, ptr %25, i32 0, i32 14
  %27 = load ptr, ptr %26, align 8, !tbaa !44
  %28 = load i32, ptr %6, align 4, !tbaa !20
  %29 = call i32 @lit_neg(i32 noundef %28)
  %30 = sext i32 %29 to i64
  %31 = getelementptr inbounds ptr, ptr %27, i64 %30
  %32 = load ptr, ptr %31, align 8, !tbaa !26
  %33 = load ptr, ptr %5, align 8, !tbaa !26
  %34 = getelementptr inbounds nuw %struct.Sto_Cls_t_, ptr %33, i32 0, i32 2
  store ptr %32, ptr %34, align 8, !tbaa !66
  br label %35

35:                                               ; preds = %24, %13
  %36 = load ptr, ptr %5, align 8, !tbaa !26
  %37 = load ptr, ptr %4, align 8, !tbaa !3
  %38 = getelementptr inbounds nuw %struct.Int_Man_t_, ptr %37, i32 0, i32 14
  %39 = load ptr, ptr %38, align 8, !tbaa !44
  %40 = load i32, ptr %6, align 4, !tbaa !20
  %41 = call i32 @lit_neg(i32 noundef %40)
  %42 = sext i32 %41 to i64
  %43 = getelementptr inbounds ptr, ptr %39, i64 %42
  store ptr %36, ptr %43, align 8, !tbaa !26
  ret void
}

; Function Attrs: nounwind uwtable
define i32 @Int_ManProcessRoots(ptr noundef %0) #0 {
  %2 = alloca i32, align 4
  %3 = alloca ptr, align 8
  %4 = alloca ptr, align 8
  %5 = alloca i32, align 4
  %6 = alloca i32, align 4
  store ptr %0, ptr %3, align 8, !tbaa !3
  call void @llvm.lifetime.start.p0(i64 8, ptr %4) #9
  call void @llvm.lifetime.start.p0(i64 4, ptr %5) #9
  store i32 0, ptr %5, align 4, !tbaa !20
  %7 = load ptr, ptr %3, align 8, !tbaa !3
  %8 = getelementptr inbounds nuw %struct.Int_Man_t_, ptr %7, i32 0, i32 0
  %9 = load ptr, ptr %8, align 8, !tbaa !22
  %10 = getelementptr inbounds nuw %struct.Sto_Man_t_, ptr %9, i32 0, i32 4
  %11 = load ptr, ptr %10, align 8, !tbaa !23
  store ptr %11, ptr %4, align 8, !tbaa !26
  br label %12

12:                                               ; preds = %18, %1
  %13 = load ptr, ptr %4, align 8, !tbaa !26
  %14 = icmp ne ptr %13, null
  br i1 %14, label %15, label %22

15:                                               ; preds = %12
  %16 = load i32, ptr %5, align 4, !tbaa !20
  %17 = add nsw i32 %16, 1
  store i32 %17, ptr %5, align 4, !tbaa !20
  br label %18

18:                                               ; preds = %15
  %19 = load ptr, ptr %4, align 8, !tbaa !26
  %20 = getelementptr inbounds nuw %struct.Sto_Cls_t_, ptr %19, i32 0, i32 0
  %21 = load ptr, ptr %20, align 8, !tbaa !30
  store ptr %21, ptr %4, align 8, !tbaa !26
  br label %12, !llvm.loop !99

22:                                               ; preds = %12
  %23 = load ptr, ptr %3, align 8, !tbaa !3
  %24 = getelementptr inbounds nuw %struct.Int_Man_t_, ptr %23, i32 0, i32 9
  store i32 0, ptr %24, align 4, !tbaa !61
  %25 = load ptr, ptr %3, align 8, !tbaa !3
  %26 = getelementptr inbounds nuw %struct.Int_Man_t_, ptr %25, i32 0, i32 0
  %27 = load ptr, ptr %26, align 8, !tbaa !22
  %28 = getelementptr inbounds nuw %struct.Sto_Man_t_, ptr %27, i32 0, i32 4
  %29 = load ptr, ptr %28, align 8, !tbaa !23
  store ptr %29, ptr %4, align 8, !tbaa !26
  br label %30

30:                                               ; preds = %96, %22
  %31 = load ptr, ptr %4, align 8, !tbaa !26
  %32 = icmp ne ptr %31, null
  br i1 %32, label %33, label %40

33:                                               ; preds = %30
  %34 = load ptr, ptr %4, align 8, !tbaa !26
  %35 = getelementptr inbounds nuw %struct.Sto_Cls_t_, ptr %34, i32 0, i32 4
  %36 = load i32, ptr %35, align 4
  %37 = lshr i32 %36, 1
  %38 = and i32 %37, 1
  %39 = icmp ne i32 %38, 0
  br label %40

40:                                               ; preds = %33, %30
  %41 = phi i1 [ false, %30 ], [ %39, %33 ]
  br i1 %41, label %42, label %100

42:                                               ; preds = %40
  %43 = load ptr, ptr %4, align 8, !tbaa !26
  %44 = getelementptr inbounds nuw %struct.Sto_Cls_t_, ptr %43, i32 0, i32 4
  %45 = load i32, ptr %44, align 4
  %46 = lshr i32 %45, 3
  %47 = and i32 %46, 16777215
  %48 = icmp sgt i32 %47, 1
  br i1 %48, label %49, label %62

49:                                               ; preds = %42
  %50 = load ptr, ptr %3, align 8, !tbaa !3
  %51 = load ptr, ptr %4, align 8, !tbaa !26
  %52 = load ptr, ptr %4, align 8, !tbaa !26
  %53 = getelementptr inbounds nuw %struct.Sto_Cls_t_, ptr %52, i32 0, i32 5
  %54 = getelementptr inbounds [0 x i32], ptr %53, i64 0, i64 0
  %55 = load i32, ptr %54, align 8, !tbaa !20
  call void @Int_ManWatchClause(ptr noundef %50, ptr noundef %51, i32 noundef %55)
  %56 = load ptr, ptr %3, align 8, !tbaa !3
  %57 = load ptr, ptr %4, align 8, !tbaa !26
  %58 = load ptr, ptr %4, align 8, !tbaa !26
  %59 = getelementptr inbounds nuw %struct.Sto_Cls_t_, ptr %58, i32 0, i32 5
  %60 = getelementptr inbounds [0 x i32], ptr %59, i64 0, i64 1
  %61 = load i32, ptr %60, align 4, !tbaa !20
  call void @Int_ManWatchClause(ptr noundef %56, ptr noundef %57, i32 noundef %61)
  br label %62

62:                                               ; preds = %49, %42
  %63 = load ptr, ptr %4, align 8, !tbaa !26
  %64 = getelementptr inbounds nuw %struct.Sto_Cls_t_, ptr %63, i32 0, i32 4
  %65 = load i32, ptr %64, align 4
  %66 = lshr i32 %65, 3
  %67 = and i32 %66, 16777215
  %68 = icmp ne i32 %67, 1
  br i1 %68, label %69, label %70

69:                                               ; preds = %62
  br label %96

70:                                               ; preds = %62
  %71 = load ptr, ptr %3, align 8, !tbaa !3
  %72 = load ptr, ptr %4, align 8, !tbaa !26
  %73 = getelementptr inbounds nuw %struct.Sto_Cls_t_, ptr %72, i32 0, i32 5
  %74 = getelementptr inbounds [0 x i32], ptr %73, i64 0, i64 0
  %75 = load i32, ptr %74, align 8, !tbaa !20
  %76 = load ptr, ptr %4, align 8, !tbaa !26
  %77 = call i32 @Int_ManEnqueue(ptr noundef %71, i32 noundef %75, ptr noundef %76)
  %78 = icmp ne i32 %77, 0
  br i1 %78, label %95, label %79

79:                                               ; preds = %70
  %80 = load ptr, ptr %3, align 8, !tbaa !3
  %81 = load ptr, ptr %4, align 8, !tbaa !26
  %82 = load ptr, ptr %3, align 8, !tbaa !3
  %83 = getelementptr inbounds nuw %struct.Int_Man_t_, ptr %82, i32 0, i32 0
  %84 = load ptr, ptr %83, align 8, !tbaa !22
  %85 = getelementptr inbounds nuw %struct.Sto_Man_t_, ptr %84, i32 0, i32 6
  %86 = load ptr, ptr %85, align 8, !tbaa !96
  %87 = call i32 @Int_ManProofTraceOne(ptr noundef %80, ptr noundef %81, ptr noundef %86)
  %88 = load ptr, ptr %3, align 8, !tbaa !3
  %89 = getelementptr inbounds nuw %struct.Int_Man_t_, ptr %88, i32 0, i32 3
  %90 = load i32, ptr %89, align 4, !tbaa !97
  %91 = icmp ne i32 %90, 0
  br i1 %91, label %92, label %94

92:                                               ; preds = %79
  %93 = call i32 (ptr, ...) @printf(ptr noundef @.str.17)
  br label %94

94:                                               ; preds = %92, %79
  store i32 0, ptr %2, align 4
  store i32 1, ptr %6, align 4
  br label %127

95:                                               ; preds = %70
  br label %96

96:                                               ; preds = %95, %69
  %97 = load ptr, ptr %4, align 8, !tbaa !26
  %98 = getelementptr inbounds nuw %struct.Sto_Cls_t_, ptr %97, i32 0, i32 0
  %99 = load ptr, ptr %98, align 8, !tbaa !30
  store ptr %99, ptr %4, align 8, !tbaa !26
  br label %30, !llvm.loop !100

100:                                              ; preds = %40
  %101 = load ptr, ptr %3, align 8, !tbaa !3
  %102 = call ptr @Int_ManPropagate(ptr noundef %101, i32 noundef 0)
  store ptr %102, ptr %4, align 8, !tbaa !26
  %103 = load ptr, ptr %4, align 8, !tbaa !26
  %104 = icmp ne ptr %103, null
  br i1 %104, label %105, label %121

105:                                              ; preds = %100
  %106 = load ptr, ptr %3, align 8, !tbaa !3
  %107 = load ptr, ptr %4, align 8, !tbaa !26
  %108 = load ptr, ptr %3, align 8, !tbaa !3
  %109 = getelementptr inbounds nuw %struct.Int_Man_t_, ptr %108, i32 0, i32 0
  %110 = load ptr, ptr %109, align 8, !tbaa !22
  %111 = getelementptr inbounds nuw %struct.Sto_Man_t_, ptr %110, i32 0, i32 6
  %112 = load ptr, ptr %111, align 8, !tbaa !96
  %113 = call i32 @Int_ManProofTraceOne(ptr noundef %106, ptr noundef %107, ptr noundef %112)
  %114 = load ptr, ptr %3, align 8, !tbaa !3
  %115 = getelementptr inbounds nuw %struct.Int_Man_t_, ptr %114, i32 0, i32 3
  %116 = load i32, ptr %115, align 4, !tbaa !97
  %117 = icmp ne i32 %116, 0
  br i1 %117, label %118, label %120

118:                                              ; preds = %105
  %119 = call i32 (ptr, ...) @printf(ptr noundef @.str.17)
  br label %120

120:                                              ; preds = %118, %105
  store i32 0, ptr %2, align 4
  store i32 1, ptr %6, align 4
  br label %127

121:                                              ; preds = %100
  %122 = load ptr, ptr %3, align 8, !tbaa !3
  %123 = getelementptr inbounds nuw %struct.Int_Man_t_, ptr %122, i32 0, i32 9
  %124 = load i32, ptr %123, align 4, !tbaa !61
  %125 = load ptr, ptr %3, align 8, !tbaa !3
  %126 = getelementptr inbounds nuw %struct.Int_Man_t_, ptr %125, i32 0, i32 8
  store i32 %124, ptr %126, align 8, !tbaa !93
  store i32 1, ptr %2, align 4
  store i32 1, ptr %6, align 4
  br label %127

127:                                              ; preds = %121, %120, %94
  call void @llvm.lifetime.end.p0(i64 4, ptr %5) #9
  call void @llvm.lifetime.end.p0(i64 8, ptr %4) #9
  %128 = load i32, ptr %2, align 4
  ret i32 %128
}